; Function Attrs: nounwind uwtable
define noalias noundef nonnull ptr @l_Std_Internal_IO_Async_Sleep_selector___lambda__2(i8 noundef zeroext %0, ptr noundef %1) local_unnamed_addr #0 {
  %3 = icmp eq i8 %0, 0
  br i1 %3, label %4, label %8

4:                                                ; preds = %2
  tail call void @lean_inc_heartbeat() #4
  %5 = tail call noalias ptr @mi_malloc_small(i64 noundef 24) #4
  %6 = icmp eq ptr %5, null
  br i1 %6, label %7, label %lean_alloc_ctor.exit

7:                                                ; preds = %4
  tail call void @lean_internal_panic_out_of_memory() #5
  unreachable

8:                                                ; preds = %2
  %9 = load ptr, ptr @l_Std_Internal_IO_Async_Sleep_selector___lambda__2___closed__1, align 8, !tbaa !10
  tail call void @lean_inc_heartbeat() #4
  %10 = tail call noalias ptr @mi_malloc_small(i64 noundef 24) #4
  %11 = icmp eq ptr %10, null
  br i1 %11, label %12, label %lean_alloc_ctor.exit

12:                                               ; preds = %8
  tail call void @lean_internal_panic_out_of_memory() #5
  unreachable

lean_alloc_ctor.exit:                             ; preds = %8, %4
  %.sink17 = phi ptr [ %5, %4 ], [ %10, %8 ]
  %.sink = phi ptr [ inttoptr (i64 1 to ptr), %4 ], [ %9, %8 ]
  %13 = getelementptr inbounds nuw i8, ptr %.sink17, i64 4
  store i32 1, ptr %.sink17, align 4, !tbaa !4
  store i32 131096, ptr %13, align 4
  %14 = getelementptr inbounds nuw i8, ptr %.sink17, i64 8
  store ptr %.sink, ptr %14, align 8, !tbaa !10
  %15 = getelementptr inbounds nuw i8, ptr %.sink17, i64 16
  store ptr %1, ptr %15, align 8, !tbaa !10
  ret ptr %.sink17
}